; Function Attrs: nofree nounwind memory(read, inaccessiblemem: none) uwtable
define hidden range(i32 0, 2) i32 @internal_exr_is_standard_type(ptr noundef readonly captures(none) %0) local_unnamed_addr #0 {
  br label %2

2:                                                ; preds = %2, %1
  %indvars.iv = phi i64 [ 0, %1 ], [ %indvars.iv.next, %2 ]
  %3 = getelementptr inbounds nuw [29 x %struct._internal_exr_attr_map], ptr @the_predefined_attr_typenames, i64 0, i64 %indvars.iv
  %4 = load ptr, ptr %3, align 8, !tbaa !3
  %5 = tail call i32 @strcmp(ptr noundef nonnull dereferenceable(1) %0, ptr noundef nonnull dereferenceable(1) %4) #8
  %6 = icmp eq i32 %5, 0
  %indvars.iv.next = add nuw nsw i64 %indvars.iv, 1
  %exitcond.not = icmp eq i64 %indvars.iv.next, 29
  %or.cond = select i1 %6, i1 true, i1 %exitcond.not
  br i1 %or.cond, label %7, label %2, !llvm.loop !11

7:                                                ; preds = %2
  %spec.select = zext i1 %6 to i32
  ret i32 %spec.select
}